target datalayout = "e-m:e-p270:32:32-p271:32:32-p272:64:64-i64:64-i128:128-f80:128-n8:16:32:64-S128"
target triple = "x86_64-unknown-linux-gnu"

%struct.QemuMutex = type { %union.pthread_mutex_t, i8 }
%union.pthread_mutex_t = type { %struct.__pthread_mutex_s }
%struct.__pthread_mutex_s = type { i32, i32, i32, i32, i32, i16, i16, %struct.__pthread_internal_list }
%struct.__pthread_internal_list = type { ptr, ptr }
%struct.MigrationIncomingState = type { ptr, [2 x ptr], ptr, ptr, %struct.QemuSemaphore, %struct.QemuEvent, %struct.AnnounceTimer, i64, i8, %struct.QemuThread, i8, i8, %struct.QemuThread, i32, i32, ptr, %struct.QemuMutex, ptr, i32, ptr, %struct.QemuSemaphore, %struct.QemuThread, i32, %struct.QemuMutex, ptr, ptr, ptr, ptr, i32, ptr, ptr, %struct.QemuSemaphore, ptr, %struct.QemuSemaphore, %struct.QemuSemaphore, %struct.QemuSemaphore, ptr, ptr, i32, %struct.QemuMutex, %struct.QemuCond, i32 }
%struct.QemuEvent = type { i32, i8 }
%struct.AnnounceTimer = type { ptr, %struct.AnnounceParameters, i32, i32 }
%struct.AnnounceParameters = type { i64, i64, i64, i64, i8, ptr, ptr }
%struct.QemuThread = type { i64 }
%struct.QemuSemaphore = type { %struct.QemuMutex, %struct.QemuCond, i32 }
%struct.QemuCond = type { %union.pthread_cond_t, i8 }
%union.pthread_cond_t = type { %struct.__pthread_cond_s }
%struct.__pthread_cond_s = type { %union.__atomic_wide_counter, %union.__atomic_wide_counter, [2 x i32], [2 x i32], i32, i32, [2 x i32] }
%union.__atomic_wide_counter = type { i64 }
%struct.MigrationInfo = type { i8, i32, ptr, ptr, ptr, ptr, i8, i64, i8, i64, i8, i64, i8, i64, i8, i64, ptr, i8, ptr, i8, i32, i8, ptr, ptr, i8, ptr, i8, i64, i8, i64 }
%struct.PostcopyBlocktimeContext = type { ptr, ptr, i32, ptr, i32, i32, i64, %struct.Notifier }
%struct.Notifier = type { ptr, %struct.anon.1 }
%struct.anon.1 = type { ptr, ptr }
%struct.MachineState = type { %struct.Object, ptr, ptr, ptr, i32, ptr, i8, i8, i8, i8, ptr, i8, i8, i8, ptr, ptr, ptr, ptr, ptr, i64, i64, i64, %struct.BootConfiguration, ptr, ptr, ptr, ptr, ptr, ptr, %struct.CpuTopology, ptr, ptr }
%struct.Object = type { ptr, ptr, ptr, i32, ptr }
%struct.BootConfiguration = type { ptr, ptr, i8, i8, ptr, i8, i64, i8, i64, i8, i8 }
%struct.CpuTopology = type { i32, i32, i32, i32, i32, i32, i32, i32, i32 }
%struct.uint32List = type { ptr, i32 }

@.str.19 = private unnamed_addr constant [8 x i8] c"machine\00", align 1
@.str.20 = private unnamed_addr constant [98 x i8] c"/home/dtcxzyw/WorkSpace/Projects/compilers/llvm-opt-benchmark/bench/qemu/qemu/include/hw/boards.h\00", align 1
@__func__.MACHINE = private unnamed_addr constant [8 x i8] c"MACHINE\00", align 1

; Function Attrs: nounwind sspstrong uwtable
define internal ptr @MACHINE(ptr noundef %obj) #0 {
entry:
  %obj.addr = alloca ptr, align 8
  store ptr %obj, ptr %obj.addr, align 8
  %0 = load ptr, ptr %obj.addr, align 8
  %call = call ptr @object_dynamic_cast_assert(ptr noundef %0, ptr noundef @.str.19, ptr noundef @.str.20, i32 noundef 23, ptr noundef @__func__.MACHINE)
  ret ptr %call
}

; Function Attrs: nounwind sspstrong uwtable
define internal ptr @get_vcpu_blocktime_list(ptr noundef %ctx) #0 {
entry:
  %ctx.addr = alloca ptr, align 8
  %ms = alloca ptr, align 8
  %list = alloca ptr, align 8
  %i = alloca i32, align 4
  %_tmp = alloca ptr, align 8
  store ptr %ctx, ptr %ctx.addr, align 8
  %call = call ptr @qdev_get_machine()
  %call1 = call ptr @MACHINE(ptr noundef %call)
  store ptr %call1, ptr %ms, align 8
  store ptr null, ptr %list, align 8
  %0 = load ptr, ptr %ms, align 8
  %smp = getelementptr inbounds %struct.MachineState, ptr %0, i32 0, i32 29
  %cpus = getelementptr inbounds %struct.CpuTopology, ptr %smp, i32 0, i32 0
  %1 = load i32, ptr %cpus, align 8
  %sub = sub i32 %1, 1
  store i32 %sub, ptr %i, align 4
  br label %for.cond

for.cond:                                         ; preds = %for.inc, %entry
  %2 = load i32, ptr %i, align 4
  %cmp = icmp sge i32 %2, 0
  br i1 %cmp, label %for.body, label %for.end

for.body:                                         ; preds = %for.cond
  br label %do.body

do.body:                                          ; preds = %for.body
  %call2 = call noalias ptr @g_malloc(i64 noundef 16) #9
  store ptr %call2, ptr %_tmp, align 8
  %3 = load ptr, ptr %ctx.addr, align 8
  %vcpu_blocktime = getelementptr inbounds %struct.PostcopyBlocktimeContext, ptr %3, i32 0, i32 3
  %4 = load ptr, ptr %vcpu_blocktime, align 8
  %5 = load i32, ptr %i, align 4
  %idxprom = sext i32 %5 to i64
  %arrayidx = getelementptr i32, ptr %4, i64 %idxprom
  %6 = load i32, ptr %arrayidx, align 4
  %7 = load ptr, ptr %_tmp, align 8
  %value = getelementptr inbounds %struct.uint32List, ptr %7, i32 0, i32 1
  store i32 %6, ptr %value, align 8
  %8 = load ptr, ptr %list, align 8
  %9 = load ptr, ptr %_tmp, align 8
  %next = getelementptr inbounds %struct.uint32List, ptr %9, i32 0, i32 0
  store ptr %8, ptr %next, align 8
  %10 = load ptr, ptr %_tmp, align 8
  store ptr %10, ptr %list, align 8
  br label %do.end

do.end:                                           ; preds = %do.body
  br label %for.inc

for.inc:                                          ; preds = %do.end
  %11 = load i32, ptr %i, align 4
  %dec = add i32 %11, -1
  store i32 %dec, ptr %i, align 4
  br label %for.cond, !llvm.loop !5

for.end:                                          ; preds = %for.cond
  %12 = load ptr, ptr %list, align 8
  ret ptr %12
}

; Function Attrs: nounwind sspstrong uwtable
define dso_local void @fill_destination_postcopy_migration_info(ptr noundef %info) #0 {
entry:
  %info.addr = alloca ptr, align 8
  %mis = alloca ptr, align 8
  %bc = alloca ptr, align 8
  store ptr %info, ptr %info.addr, align 8
  %call = call ptr @migration_incoming_get_current()
  store ptr %call, ptr %mis, align 8
  %0 = load ptr, ptr %mis, align 8
  %blocktime_ctx = getelementptr inbounds %struct.MigrationIncomingState, ptr %0, i32 0, i32 32
  %1 = load ptr, ptr %blocktime_ctx, align 8
  store ptr %1, ptr %bc, align 8
  %2 = load ptr, ptr %bc, align 8
  %tobool = icmp ne ptr %2, null
  br i1 %tobool, label %if.end, label %if.then

if.then:                                          ; preds = %entry
  br label %return

if.end:                                           ; preds = %entry
  %3 = load ptr, ptr %info.addr, align 8
  %has_postcopy_blocktime = getelementptr inbounds %struct.MigrationInfo, ptr %3, i32 0, i32 19
  store i8 1, ptr %has_postcopy_blocktime, align 8
  %4 = load ptr, ptr %bc, align 8
  %total_blocktime = getelementptr inbounds %struct.PostcopyBlocktimeContext, ptr %4, i32 0, i32 2
  %5 = load i32, ptr %total_blocktime, align 8
  %6 = load ptr, ptr %info.addr, align 8
  %postcopy_blocktime = getelementptr inbounds %struct.MigrationInfo, ptr %6, i32 0, i32 20
  store i32 %5, ptr %postcopy_blocktime, align 4
  %7 = load ptr, ptr %info.addr, align 8
  %has_postcopy_vcpu_blocktime = getelementptr inbounds %struct.MigrationInfo, ptr %7, i32 0, i32 21
  store i8 1, ptr %has_postcopy_vcpu_blocktime, align 8
  %8 = load ptr, ptr %bc, align 8
  %call1 = call ptr @get_vcpu_blocktime_list(ptr noundef %8)
  %9 = load ptr, ptr %info.addr, align 8
  %postcopy_vcpu_blocktime = getelementptr inbounds %struct.MigrationInfo, ptr %9, i32 0, i32 22
  store ptr %call1, ptr %postcopy_vcpu_blocktime, align 8
  br label %return

return:                                           ; preds = %if.end, %if.then
  ret void
}