; Function Attrs: nounwind sspstrong uwtable
define dso_local void @fill_destination_postcopy_migration_info(ptr noundef writeonly captures(none) %info) local_unnamed_addr #0 {
entry:
  %call = tail call ptr @migration_incoming_get_current() #16
  %blocktime_ctx = getelementptr inbounds nuw i8, ptr %call, i64 704
  %0 = load ptr, ptr %blocktime_ctx, align 8
  %tobool.not = icmp eq ptr %0, null
  br i1 %tobool.not, label %return, label %if.end

if.end:                                           ; preds = %entry
  %has_postcopy_blocktime = getelementptr inbounds nuw i8, ptr %info, i64 144
  store i8 1, ptr %has_postcopy_blocktime, align 8
  %total_blocktime = getelementptr inbounds nuw i8, ptr %0, i64 16
  %1 = load i32, ptr %total_blocktime, align 8
  %postcopy_blocktime = getelementptr inbounds nuw i8, ptr %info, i64 148
  store i32 %1, ptr %postcopy_blocktime, align 4
  %has_postcopy_vcpu_blocktime = getelementptr inbounds nuw i8, ptr %info, i64 152
  store i8 1, ptr %has_postcopy_vcpu_blocktime, align 8
  %call.i = tail call ptr @qdev_get_machine() #16
  %call.i.i = tail call ptr @object_dynamic_cast_assert(ptr noundef %call.i, ptr noundef nonnull @.str.19, ptr noundef nonnull @.str.20, i32 noundef 23, ptr noundef nonnull @__func__.MACHINE) #16
  %smp.i = getelementptr inbounds nuw i8, ptr %call.i.i, i64 288
  %2 = load i32, ptr %smp.i, align 8
  %i.06.i = add i32 %2, -1
  %cmp7.i = icmp sgt i32 %i.06.i, -1
  br i1 %cmp7.i, label %do.body.lr.ph.i, label %get_vcpu_blocktime_list.exit

do.body.lr.ph.i:                                  ; preds = %if.end
  %vcpu_blocktime.i = getelementptr inbounds nuw i8, ptr %0, i64 24
  %3 = zext nneg i32 %i.06.i to i64
  br label %do.body.i

do.body.i:                                        ; preds = %do.body.i, %do.body.lr.ph.i
  %indvars.iv.i = phi i64 [ %3, %do.body.lr.ph.i ], [ %indvars.iv.next.i, %do.body.i ]
  %list.08.i = phi ptr [ null, %do.body.lr.ph.i ], [ %call2.i, %do.body.i ]
  %call2.i = tail call noalias dereferenceable_or_null(16) ptr @g_malloc(i64 noundef 16) #17
  %4 = load ptr, ptr %vcpu_blocktime.i, align 8
  %arrayidx.i = getelementptr i32, ptr %4, i64 %indvars.iv.i
  %5 = load i32, ptr %arrayidx.i, align 4
  %value.i = getelementptr inbounds nuw i8, ptr %call2.i, i64 8
  store i32 %5, ptr %value.i, align 8
  store ptr %list.08.i, ptr %call2.i, align 8
  %indvars.iv.next.i = add nsw i64 %indvars.iv.i, -1
  %cmp.not.i = icmp eq i64 %indvars.iv.i, 0
  br i1 %cmp.not.i, label %get_vcpu_blocktime_list.exit, label %do.body.i, !llvm.loop !5

get_vcpu_blocktime_list.exit:                     ; preds = %do.body.i, %if.end
  %list.0.lcssa.i = phi ptr [ null, %if.end ], [ %call2.i, %do.body.i ]
  %postcopy_vcpu_blocktime = getelementptr inbounds nuw i8, ptr %info, i64 160
  store ptr %list.0.lcssa.i, ptr %postcopy_vcpu_blocktime, align 8
  br label %return

return:                                           ; preds = %entry, %get_vcpu_blocktime_list.exit
  ret void
}